target datalayout = "e-m:e-p270:32:32-p271:32:32-p272:64:64-i64:64-i128:128-f80:128-n8:16:32:64-S128"
target triple = "x86_64-pc-linux-gnu"

%struct.JNINativeInterface_ = type { ptr, ptr, ptr, ptr, ptr, ptr, ptr, ptr, ptr, ptr, ptr, ptr, ptr, ptr, ptr, ptr, ptr, ptr, ptr, ptr, ptr, ptr, ptr, ptr, ptr, ptr, ptr, ptr, ptr, ptr, ptr, ptr, ptr, ptr, ptr, ptr, ptr, ptr, ptr, ptr, ptr, ptr, ptr, ptr, ptr, ptr, ptr, ptr, ptr, ptr, ptr, ptr, ptr, ptr, ptr, ptr, ptr, ptr, ptr, ptr, ptr, ptr, ptr, ptr, ptr, ptr, ptr, ptr, ptr, ptr, ptr, ptr, ptr, ptr, ptr, ptr, ptr, ptr, ptr, ptr, ptr, ptr, ptr, ptr, ptr, ptr, ptr, ptr, ptr, ptr, ptr, ptr, ptr, ptr, ptr, ptr, ptr, ptr, ptr, ptr, ptr, ptr, ptr, ptr, ptr, ptr, ptr, ptr, ptr, ptr, ptr, ptr, ptr, ptr, ptr, ptr, ptr, ptr, ptr, ptr, ptr, ptr, ptr, ptr, ptr, ptr, ptr, ptr, ptr, ptr, ptr, ptr, ptr, ptr, ptr, ptr, ptr, ptr, ptr, ptr, ptr, ptr, ptr, ptr, ptr, ptr, ptr, ptr, ptr, ptr, ptr, ptr, ptr, ptr, ptr, ptr, ptr, ptr, ptr, ptr, ptr, ptr, ptr, ptr, ptr, ptr, ptr, ptr, ptr, ptr, ptr, ptr, ptr, ptr, ptr, ptr, ptr, ptr, ptr, ptr, ptr, ptr, ptr, ptr, ptr, ptr, ptr, ptr, ptr, ptr, ptr, ptr, ptr, ptr, ptr, ptr, ptr, ptr, ptr, ptr, ptr, ptr, ptr, ptr, ptr, ptr, ptr, ptr, ptr, ptr, ptr, ptr, ptr, ptr, ptr, ptr, ptr, ptr, ptr, ptr, ptr, ptr, ptr, ptr, ptr, ptr, ptr, ptr, ptr, ptr, ptr, ptr, ptr, ptr, ptr }

@.str = private unnamed_addr constant [14 x i8] c"Stream Closed\00", align 1
@.str.2 = private unnamed_addr constant [36 x i8] c"java/lang/IndexOutOfBoundsException\00", align 1
@.str.3 = private unnamed_addr constant [12 x i8] c"Write error\00", align 1

; Function Attrs: nounwind uwtable
define internal i32 @outOfBounds(ptr noundef %0, i32 noundef %1, i32 noundef %2, ptr noundef %3) #0 {
  %5 = alloca ptr, align 8
  %6 = alloca i32, align 4
  %7 = alloca i32, align 4
  %8 = alloca ptr, align 8
  store ptr %0, ptr %5, align 8
  store i32 %1, ptr %6, align 4
  store i32 %2, ptr %7, align 4
  store ptr %3, ptr %8, align 8
  %9 = load i32, ptr %6, align 4
  %10 = icmp slt i32 %9, 0
  br i1 %10, label %26, label %11

11:                                               ; preds = %4
  %12 = load i32, ptr %7, align 4
  %13 = icmp slt i32 %12, 0
  br i1 %13, label %26, label %14

14:                                               ; preds = %11
  %15 = load ptr, ptr %5, align 8
  %16 = load ptr, ptr %15, align 8
  %17 = getelementptr inbounds %struct.JNINativeInterface_, ptr %16, i32 0, i32 171
  %18 = load ptr, ptr %17, align 8
  %19 = load ptr, ptr %5, align 8
  %20 = load ptr, ptr %8, align 8
  %21 = call i32 %18(ptr noundef %19, ptr noundef %20)
  %22 = load i32, ptr %6, align 4
  %23 = sub nsw i32 %21, %22
  %24 = load i32, ptr %7, align 4
  %25 = icmp slt i32 %23, %24
  br label %26

26:                                               ; preds = %14, %11, %4
  %27 = phi i1 [ true, %11 ], [ true, %4 ], [ %25, %14 ]
  %28 = zext i1 %27 to i32
  ret i32 %28
}

; Function Attrs: nounwind uwtable
define hidden void @writeBytes(ptr noundef %0, ptr noundef %1, ptr noundef %2, i32 noundef %3, i32 noundef %4, i8 noundef zeroext %5, ptr noundef %6) #0 {
  %8 = alloca ptr, align 8
  %9 = alloca ptr, align 8
  %10 = alloca ptr, align 8
  %11 = alloca i32, align 4
  %12 = alloca i32, align 4
  %13 = alloca i8, align 1
  %14 = alloca ptr, align 8
  %15 = alloca i32, align 4
  %16 = alloca [8192 x i8], align 16
  %17 = alloca ptr, align 8
  %18 = alloca i32, align 4
  store ptr %0, ptr %8, align 8
  store ptr %1, ptr %9, align 8
  store ptr %2, ptr %10, align 8
  store i32 %3, ptr %11, align 4
  store i32 %4, ptr %12, align 4
  store i8 %5, ptr %13, align 1
  store ptr %6, ptr %14, align 8
  store ptr null, ptr %17, align 8
  %19 = load ptr, ptr %10, align 8
  %20 = icmp eq ptr %19, null
  br i1 %20, label %21, label %23

21:                                               ; preds = %7
  %22 = load ptr, ptr %8, align 8
  call void @JNU_ThrowNullPointerException(ptr noundef %22, ptr noundef null)
  br label %122

23:                                               ; preds = %7
  %24 = load ptr, ptr %8, align 8
  %25 = load i32, ptr %11, align 4
  %26 = load i32, ptr %12, align 4
  %27 = load ptr, ptr %10, align 8
  %28 = call i32 @outOfBounds(ptr noundef %24, i32 noundef %25, i32 noundef %26, ptr noundef %27)
  %29 = icmp ne i32 %28, 0
  br i1 %29, label %30, label %32

30:                                               ; preds = %23
  %31 = load ptr, ptr %8, align 8
  call void @JNU_ThrowByName(ptr noundef %31, ptr noundef @.str.2, ptr noundef null)
  br label %122

32:                                               ; preds = %23
  %33 = load i32, ptr %12, align 4
  %34 = icmp eq i32 %33, 0
  br i1 %34, label %35, label %36

35:                                               ; preds = %32
  br label %122

36:                                               ; preds = %32
  %37 = load i32, ptr %12, align 4
  %38 = icmp sgt i32 %37, 8192
  br i1 %38, label %39, label %48

39:                                               ; preds = %36
  %40 = load i32, ptr %12, align 4
  %41 = sext i32 %40 to i64
  %42 = call noalias ptr @malloc(i64 noundef %41) #4
  store ptr %42, ptr %17, align 8
  %43 = load ptr, ptr %17, align 8
  %44 = icmp eq ptr %43, null
  br i1 %44, label %45, label %47

45:                                               ; preds = %39
  %46 = load ptr, ptr %8, align 8
  call void @JNU_ThrowOutOfMemoryError(ptr noundef %46, ptr noundef null)
  br label %122

47:                                               ; preds = %39
  br label %50

48:                                               ; preds = %36
  %49 = getelementptr inbounds [8192 x i8], ptr %16, i64 0, i64 0
  store ptr %49, ptr %17, align 8
  br label %50

50:                                               ; preds = %48, %47
  br label %51

51:                                               ; preds = %50
  %52 = load ptr, ptr %8, align 8
  %53 = load ptr, ptr %52, align 8
  %54 = getelementptr inbounds %struct.JNINativeInterface_, ptr %53, i32 0, i32 200
  %55 = load ptr, ptr %54, align 8
  %56 = load ptr, ptr %8, align 8
  %57 = load ptr, ptr %10, align 8
  %58 = load i32, ptr %11, align 4
  %59 = load i32, ptr %12, align 4
  %60 = load ptr, ptr %17, align 8
  call void %55(ptr noundef %56, ptr noundef %57, i32 noundef %58, i32 noundef %59, ptr noundef %60)
  %61 = load ptr, ptr %8, align 8
  %62 = load ptr, ptr %61, align 8
  %63 = getelementptr inbounds %struct.JNINativeInterface_, ptr %62, i32 0, i32 15
  %64 = load ptr, ptr %63, align 8
  %65 = load ptr, ptr %8, align 8
  %66 = call ptr %64(ptr noundef %65)
  %67 = icmp ne ptr %66, null
  br i1 %67, label %116, label %68

68:                                               ; preds = %51
  store i32 0, ptr %11, align 4
  br label %69

69:                                               ; preds = %108, %68
  %70 = load i32, ptr %12, align 4
  %71 = icmp sgt i32 %70, 0
  br i1 %71, label %72, label %115

72:                                               ; preds = %69
  %73 = load ptr, ptr %8, align 8
  %74 = load ptr, ptr %9, align 8
  %75 = load ptr, ptr %14, align 8
  %76 = call i32 @getFD(ptr noundef %73, ptr noundef %74, ptr noundef %75)
  store i32 %76, ptr %18, align 4
  %77 = load i32, ptr %18, align 4
  %78 = icmp eq i32 %77, -1
  br i1 %78, label %79, label %81

79:                                               ; preds = %72
  %80 = load ptr, ptr %8, align 8
  call void @JNU_ThrowIOException(ptr noundef %80, ptr noundef @.str)
  br label %115

81:                                               ; preds = %72
  %82 = load i8, ptr %13, align 1
  %83 = zext i8 %82 to i32
  %84 = icmp eq i32 %83, 1
  br i1 %84, label %85, label %94

85:                                               ; preds = %81
  %86 = load i32, ptr %18, align 4
  %87 = load ptr, ptr %17, align 8
  %88 = load i32, ptr %11, align 4
  %89 = sext i32 %88 to i64
  %90 = getelementptr inbounds i8, ptr %87, i64 %89
  %91 = load i32, ptr %12, align 4
  %92 = call i64 @handleWrite(i32 noundef %86, ptr noundef %90, i32 noundef %91)
  %93 = trunc i64 %92 to i32
  store i32 %93, ptr %15, align 4
  br label %103

94:                                               ; preds = %81
  %95 = load i32, ptr %18, align 4
  %96 = load ptr, ptr %17, align 8
  %97 = load i32, ptr %11, align 4
  %98 = sext i32 %97 to i64
  %99 = getelementptr inbounds i8, ptr %96, i64 %98
  %100 = load i32, ptr %12, align 4
  %101 = call i64 @handleWrite(i32 noundef %95, ptr noundef %99, i32 noundef %100)
  %102 = trunc i64 %101 to i32
  store i32 %102, ptr %15, align 4
  br label %103

103:                                              ; preds = %94, %85
  %104 = load i32, ptr %15, align 4
  %105 = icmp eq i32 %104, -1
  br i1 %105, label %106, label %108

106:                                              ; preds = %103
  %107 = load ptr, ptr %8, align 8
  call void @JNU_ThrowIOExceptionWithLastError(ptr noundef %107, ptr noundef @.str.3)
  br label %115

108:                                              ; preds = %103
  %109 = load i32, ptr %15, align 4
  %110 = load i32, ptr %11, align 4
  %111 = add nsw i32 %110, %109
  store i32 %111, ptr %11, align 4
  %112 = load i32, ptr %15, align 4
  %113 = load i32, ptr %12, align 4
  %114 = sub nsw i32 %113, %112
  store i32 %114, ptr %12, align 4
  br label %69, !llvm.loop !6

115:                                              ; preds = %106, %79, %69
  br label %116

116:                                              ; preds = %115, %51
  %117 = load ptr, ptr %17, align 8
  %118 = getelementptr inbounds [8192 x i8], ptr %16, i64 0, i64 0
  %119 = icmp ne ptr %117, %118
  br i1 %119, label %120, label %122

120:                                              ; preds = %116
  %121 = load ptr, ptr %17, align 8
  call void @free(ptr noundef %121) #5
  br label %122

122:                                              ; preds = %120, %116, %45, %35, %30, %21
  ret void
}