; Function Attrs: nounwind uwtable
define hidden void @writeBytes(ptr noundef %0, ptr noundef %1, ptr noundef %2, i32 noundef %3, i32 noundef %4, i8 noundef zeroext %5, ptr noundef %6) local_unnamed_addr #0 {
  %8 = alloca [8192 x i8], align 16
  %9 = icmp eq ptr %2, null
  br i1 %9, label %10, label %11

10:                                               ; preds = %7
  tail call void @JNU_ThrowNullPointerException(ptr noundef %0, ptr noundef null) #4
  br label %60

11:                                               ; preds = %7
  %12 = or i32 %4, %3
  %or.cond.not.i = icmp sgt i32 %12, -1
  br i1 %or.cond.not.i, label %outOfBounds.exit, label %outOfBounds.exit.thread

outOfBounds.exit:                                 ; preds = %11
  %13 = load ptr, ptr %0, align 8
  %14 = getelementptr inbounds i8, ptr %13, i64 1368
  %15 = load ptr, ptr %14, align 8
  %16 = tail call i32 %15(ptr noundef nonnull %0, ptr noundef nonnull %2) #4
  %17 = sub nsw i32 %16, %3
  %.not = icmp slt i32 %17, %4
  br i1 %.not, label %outOfBounds.exit.thread, label %18

outOfBounds.exit.thread:                          ; preds = %11, %outOfBounds.exit
  tail call void @JNU_ThrowByName(ptr noundef %0, ptr noundef nonnull @.str.2, ptr noundef null) #4
  br label %60

18:                                               ; preds = %outOfBounds.exit
  %19 = icmp eq i32 %4, 0
  br i1 %19, label %60, label %20

20:                                               ; preds = %18
  %21 = icmp sgt i32 %4, 8192
  br i1 %21, label %22, label %27

22:                                               ; preds = %20
  %23 = zext nneg i32 %4 to i64
  %24 = tail call noalias ptr @malloc(i64 noundef %23) #5
  %25 = icmp eq ptr %24, null
  br i1 %25, label %26, label %27

26:                                               ; preds = %22
  tail call void @JNU_ThrowOutOfMemoryError(ptr noundef nonnull %0, ptr noundef null) #4
  br label %60

27:                                               ; preds = %20, %22
  %.042 = phi ptr [ %24, %22 ], [ %8, %20 ]
  %28 = load ptr, ptr %0, align 8
  %29 = getelementptr inbounds i8, ptr %28, i64 1600
  %30 = load ptr, ptr %29, align 8
  call void %30(ptr noundef nonnull %0, ptr noundef nonnull %2, i32 noundef %3, i32 noundef %4, ptr noundef nonnull %.042) #4
  %31 = load ptr, ptr %0, align 8
  %32 = getelementptr inbounds i8, ptr %31, i64 120
  %33 = load ptr, ptr %32, align 8
  %34 = call ptr %33(ptr noundef nonnull %0) #4
  %.not49 = icmp eq ptr %34, null
  %35 = icmp sgt i32 %4, 0
  %or.cond = and i1 %.not49, %35
  br i1 %or.cond, label %.lr.ph, label %.loopexit

.lr.ph:                                           ; preds = %27
  %36 = icmp eq i8 %5, 1
  br i1 %36, label %.lr.ph.split.us, label %.lr.ph.split

.lr.ph.split.us:                                  ; preds = %.lr.ph, %44
  %.053.us = phi i32 [ %45, %44 ], [ 0, %.lr.ph ]
  %.04452.us = phi i32 [ %46, %44 ], [ %4, %.lr.ph ]
  %37 = call i32 @getFD(ptr noundef nonnull %0, ptr noundef %1, ptr noundef %6) #4
  %38 = icmp eq i32 %37, -1
  br i1 %38, label %.split.us, label %39

39:                                               ; preds = %.lr.ph.split.us
  %40 = sext i32 %.053.us to i64
  %41 = getelementptr inbounds i8, ptr %.042, i64 %40
  %42 = call i64 @handleWrite(i32 noundef %37, ptr noundef nonnull %41, i32 noundef %.04452.us) #4
  %.043.us = trunc i64 %42 to i32
  %43 = icmp eq i32 %.043.us, -1
  br i1 %43, label %.split55.us, label %44

44:                                               ; preds = %39
  %45 = add nsw i32 %.053.us, %.043.us
  %46 = sub nsw i32 %.04452.us, %.043.us
  %47 = icmp sgt i32 %46, 0
  br i1 %47, label %.lr.ph.split.us, label %.loopexit, !llvm.loop !6

.lr.ph.split:                                     ; preds = %.lr.ph, %55
  %.053 = phi i32 [ %56, %55 ], [ 0, %.lr.ph ]
  %.04452 = phi i32 [ %57, %55 ], [ %4, %.lr.ph ]
  %48 = call i32 @getFD(ptr noundef nonnull %0, ptr noundef %1, ptr noundef %6) #4
  %49 = icmp eq i32 %48, -1
  br i1 %49, label %.split.us, label %50

.split.us:                                        ; preds = %.lr.ph.split, %.lr.ph.split.us
  call void @JNU_ThrowIOException(ptr noundef nonnull %0, ptr noundef nonnull @.str) #4
  br label %.loopexit

50:                                               ; preds = %.lr.ph.split
  %51 = sext i32 %.053 to i64
  %52 = getelementptr inbounds i8, ptr %.042, i64 %51
  %53 = call i64 @handleWrite(i32 noundef %48, ptr noundef nonnull %52, i32 noundef %.04452) #4
  %.043 = trunc i64 %53 to i32
  %54 = icmp eq i32 %.043, -1
  br i1 %54, label %.split55.us, label %55

.split55.us:                                      ; preds = %50, %39
  call void @JNU_ThrowIOExceptionWithLastError(ptr noundef nonnull %0, ptr noundef nonnull @.str.3) #4
  br label %.loopexit

55:                                               ; preds = %50
  %56 = add nsw i32 %.053, %.043
  %57 = sub nsw i32 %.04452, %.043
  %58 = icmp sgt i32 %57, 0
  br i1 %58, label %.lr.ph.split, label %.loopexit, !llvm.loop !6

.loopexit:                                        ; preds = %55, %44, %.split.us, %.split55.us, %27
  %.not50 = icmp eq ptr %.042, %8
  br i1 %.not50, label %60, label %59

59:                                               ; preds = %.loopexit
  call void @free(ptr noundef nonnull %.042) #4
  br label %60

60:                                               ; preds = %18, %59, %.loopexit, %26, %outOfBounds.exit.thread, %10
  ret void
}